target datalayout = "e-m:e-p270:32:32-p271:32:32-p272:64:64-i64:64-i128:128-f80:128-n8:16:32:64-S128"
target triple = "x86_64-pc-linux-gnu"

@proto_eth = internal global i32 0, align 4
@.str.77 = private unnamed_addr constant [9 x i8] c"Ethernet\00", align 1
@.str.78 = private unnamed_addr constant [4 x i8] c"eth\00", align 1
@eth_withoutfcs_handle = internal global ptr null, align 8
@eth_maybefcs_handle = internal global ptr null, align 8
@.str.116 = private unnamed_addr constant [4 x i8] c"fw1\00", align 1
@fw1_handle = internal global ptr null, align 8
@.str.117 = private unnamed_addr constant [10 x i8] c"ethertype\00", align 1
@ethertype_handle = internal global ptr null, align 8
@.str.118 = private unnamed_addr constant [11 x i8] c"wtap_encap\00", align 1
@exported_pdu_tap = internal global i32 -1, align 4
@.str.119 = private unnamed_addr constant [15 x i8] c"erf.types.type\00", align 1
@.str.120 = private unnamed_addr constant [9 x i8] c"ip.proto\00", align 1
@.str.121 = private unnamed_addr constant [15 x i8] c"chdlc.protocol\00", align 1
@.str.122 = private unnamed_addr constant [13 x i8] c"gre.subproto\00", align 1
@.str.123 = private unnamed_addr constant [10 x i8] c"gre.proto\00", align 1
@.str.124 = private unnamed_addr constant [14 x i8] c"juniper.proto\00", align 1
@.str.125 = private unnamed_addr constant [26 x i8] c"sflow_245.header_protocol\00", align 1
@.str.126 = private unnamed_addr constant [13 x i8] c"l2tp.pw_type\00", align 1
@.str.127 = private unnamed_addr constant [17 x i8] c"vxlan.next_proto\00", align 1
@.str.128 = private unnamed_addr constant [10 x i8] c"sll.ltype\00", align 1
@.str.129 = private unnamed_addr constant [15 x i8] c"nsh.next_proto\00", align 1
@.str.130 = private unnamed_addr constant [16 x i8] c"acdr.media_type\00", align 1
@.str.131 = private unnamed_addr constant [16 x i8] c"mctp.encap-type\00", align 1
@.str.132 = private unnamed_addr constant [9 x i8] c"udp.port\00", align 1
@.str.133 = private unnamed_addr constant [13 x i8] c"pcli.payload\00", align 1
@.str.134 = private unnamed_addr constant [9 x i8] c"atm_lane\00", align 1
@.str.135 = private unnamed_addr constant [4 x i8] c"ppi\00", align 1
@.str.136 = private unnamed_addr constant [4 x i8] c"isl\00", align 1
@isl_cap_handle = internal global ptr null, align 8
@.str.137 = private unnamed_addr constant [4 x i8] c"ipx\00", align 1
@ipx_cap_handle = internal global ptr null, align 8
@.str.138 = private unnamed_addr constant [4 x i8] c"llc\00", align 1
@llc_cap_handle = internal global ptr null, align 8

; Function Attrs: null_pointer_is_valid sspstrong uwtable
define hidden void @proto_reg_handoff_eth() #0 {
  %1 = alloca ptr, align 8
  %2 = alloca ptr, align 8
  call void @llvm.lifetime.start.p0(i64 8, ptr %1) #10
  call void @llvm.lifetime.start.p0(i64 8, ptr %2) #10
  %3 = load i32, ptr @proto_eth, align 4
  %4 = call ptr @find_dissector_add_dependency(ptr noundef @.str.116, i32 noundef %3)
  store ptr %4, ptr @fw1_handle, align 8
  %5 = load i32, ptr @proto_eth, align 4
  %6 = call ptr @find_dissector_add_dependency(ptr noundef @.str.117, i32 noundef %5)
  store ptr %6, ptr @ethertype_handle, align 8
  %7 = load i32, ptr @proto_eth, align 4
  %8 = call ptr @create_dissector_handle(ptr noundef @dissect_eth, i32 noundef %7)
  store ptr %8, ptr %1, align 8
  %9 = load ptr, ptr %1, align 8
  call void @dissector_add_uint(ptr noundef @.str.118, i32 noundef 1, ptr noundef %9)
  %10 = call i32 @register_export_pdu_tap_with_encap(ptr noundef @.str.77, i32 noundef 1)
  store i32 %10, ptr @exported_pdu_tap, align 4
  %11 = load ptr, ptr @eth_withoutfcs_handle, align 8
  call void @dissector_add_uint(ptr noundef @.str.117, i32 noundef 25944, ptr noundef %11)
  %12 = load ptr, ptr @eth_maybefcs_handle, align 8
  call void @dissector_add_uint(ptr noundef @.str.119, i32 noundef 2, ptr noundef %12)
  %13 = load ptr, ptr @eth_maybefcs_handle, align 8
  call void @dissector_add_uint(ptr noundef @.str.119, i32 noundef 11, ptr noundef %13)
  %14 = load ptr, ptr @eth_maybefcs_handle, align 8
  call void @dissector_add_uint(ptr noundef @.str.119, i32 noundef 16, ptr noundef %14)
  %15 = load ptr, ptr @eth_maybefcs_handle, align 8
  call void @dissector_add_uint(ptr noundef @.str.119, i32 noundef 20, ptr noundef %15)
  %16 = load ptr, ptr @eth_maybefcs_handle, align 8
  call void @dissector_add_uint(ptr noundef @.str.120, i32 noundef 143, ptr noundef %16)
  %17 = load ptr, ptr @eth_withoutfcs_handle, align 8
  call void @dissector_add_uint(ptr noundef @.str.121, i32 noundef 25944, ptr noundef %17)
  %18 = load ptr, ptr @eth_withoutfcs_handle, align 8
  call void @dissector_add_for_decode_as(ptr noundef @.str.122, ptr noundef %18)
  %19 = load ptr, ptr @eth_withoutfcs_handle, align 8
  call void @dissector_add_uint(ptr noundef @.str.123, i32 noundef 25944, ptr noundef %19)
  %20 = load ptr, ptr @eth_withoutfcs_handle, align 8
  call void @dissector_add_uint(ptr noundef @.str.123, i32 noundef 25600, ptr noundef %20)
  %21 = load ptr, ptr @eth_withoutfcs_handle, align 8
  call void @dissector_add_uint(ptr noundef @.str.124, i32 noundef 204, ptr noundef %21)
  %22 = load ptr, ptr @eth_withoutfcs_handle, align 8
  call void @dissector_add_uint(ptr noundef @.str.125, i32 noundef 1, ptr noundef %22)
  %23 = load ptr, ptr @eth_withoutfcs_handle, align 8
  call void @dissector_add_uint(ptr noundef @.str.126, i32 noundef 5, ptr noundef %23)
  %24 = load ptr, ptr @eth_withoutfcs_handle, align 8
  call void @dissector_add_uint(ptr noundef @.str.127, i32 noundef 3, ptr noundef %24)
  %25 = load ptr, ptr @eth_withoutfcs_handle, align 8
  call void @dissector_add_uint(ptr noundef @.str.128, i32 noundef 3, ptr noundef %25)
  %26 = load ptr, ptr @eth_withoutfcs_handle, align 8
  call void @dissector_add_uint(ptr noundef @.str.129, i32 noundef 3, ptr noundef %26)
  %27 = load ptr, ptr @eth_withoutfcs_handle, align 8
  call void @dissector_add_uint(ptr noundef @.str.130, i32 noundef 14, ptr noundef %27)
  %28 = load ptr, ptr @eth_withoutfcs_handle, align 8
  call void @dissector_add_uint(ptr noundef @.str.130, i32 noundef 50, ptr noundef %28)
  %29 = load ptr, ptr @eth_withoutfcs_handle, align 8
  call void @dissector_add_uint(ptr noundef @.str.131, i32 noundef 3, ptr noundef %29)
  %30 = load ptr, ptr @eth_withoutfcs_handle, align 8
  call void @dissector_add_for_decode_as_with_preference(ptr noundef @.str.132, ptr noundef %30)
  %31 = load ptr, ptr @eth_withoutfcs_handle, align 8
  call void @dissector_add_for_decode_as(ptr noundef @.str.133, ptr noundef %31)
  %32 = call ptr @find_capture_dissector(ptr noundef @.str.78)
  store ptr %32, ptr %2, align 8
  %33 = load ptr, ptr %2, align 8
  call void @capture_dissector_add_uint(ptr noundef @.str.118, i32 noundef 1, ptr noundef %33)
  %34 = load ptr, ptr %2, align 8
  call void @capture_dissector_add_uint(ptr noundef @.str.134, i32 noundef 2, ptr noundef %34)
  %35 = load ptr, ptr %2, align 8
  call void @capture_dissector_add_uint(ptr noundef @.str.134, i32 noundef 4, ptr noundef %35)
  %36 = load ptr, ptr %2, align 8
  call void @capture_dissector_add_uint(ptr noundef @.str.135, i32 noundef 1, ptr noundef %36)
  %37 = load ptr, ptr %2, align 8
  call void @capture_dissector_add_uint(ptr noundef @.str.128, i32 noundef 3, ptr noundef %37)
  %38 = call ptr @find_capture_dissector(ptr noundef @.str.136)
  store ptr %38, ptr @isl_cap_handle, align 8
  %39 = call ptr @find_capture_dissector(ptr noundef @.str.137)
  store ptr %39, ptr @ipx_cap_handle, align 8
  %40 = call ptr @find_capture_dissector(ptr noundef @.str.138)
  store ptr %40, ptr @llc_cap_handle, align 8
  call void @llvm.lifetime.end.p0(i64 8, ptr %2) #10
  call void @llvm.lifetime.end.p0(i64 8, ptr %1) #10
  ret void
}