; Function Attrs: null_pointer_is_valid sspstrong uwtable
define hidden void @proto_reg_handoff_eth() local_unnamed_addr #0 {
  %1 = load i32, ptr @proto_eth, align 4
  %2 = tail call ptr @find_dissector_add_dependency(ptr noundef nonnull @.str.116, i32 noundef %1)
  store ptr %2, ptr @fw1_handle, align 8
  %3 = load i32, ptr @proto_eth, align 4
  %4 = tail call ptr @find_dissector_add_dependency(ptr noundef nonnull @.str.117, i32 noundef %3)
  store ptr %4, ptr @ethertype_handle, align 8
  %5 = load i32, ptr @proto_eth, align 4
  %6 = tail call ptr @create_dissector_handle(ptr noundef nonnull @dissect_eth, i32 noundef %5)
  tail call void @dissector_add_uint(ptr noundef nonnull @.str.118, i32 noundef 1, ptr noundef %6)
  %7 = tail call i32 @register_export_pdu_tap_with_encap(ptr noundef nonnull @.str.77, i32 noundef 1)
  store i32 %7, ptr @exported_pdu_tap, align 4
  %8 = load ptr, ptr @eth_withoutfcs_handle, align 8
  tail call void @dissector_add_uint(ptr noundef nonnull @.str.117, i32 noundef 25944, ptr noundef %8)
  %9 = load ptr, ptr @eth_maybefcs_handle, align 8
  tail call void @dissector_add_uint(ptr noundef nonnull @.str.119, i32 noundef 2, ptr noundef %9)
  %10 = load ptr, ptr @eth_maybefcs_handle, align 8
  tail call void @dissector_add_uint(ptr noundef nonnull @.str.119, i32 noundef 11, ptr noundef %10)
  %11 = load ptr, ptr @eth_maybefcs_handle, align 8
  tail call void @dissector_add_uint(ptr noundef nonnull @.str.119, i32 noundef 16, ptr noundef %11)
  %12 = load ptr, ptr @eth_maybefcs_handle, align 8
  tail call void @dissector_add_uint(ptr noundef nonnull @.str.119, i32 noundef 20, ptr noundef %12)
  %13 = load ptr, ptr @eth_maybefcs_handle, align 8
  tail call void @dissector_add_uint(ptr noundef nonnull @.str.120, i32 noundef 143, ptr noundef %13)
  %14 = load ptr, ptr @eth_withoutfcs_handle, align 8
  tail call void @dissector_add_uint(ptr noundef nonnull @.str.121, i32 noundef 25944, ptr noundef %14)
  %15 = load ptr, ptr @eth_withoutfcs_handle, align 8
  tail call void @dissector_add_for_decode_as(ptr noundef nonnull @.str.122, ptr noundef %15)
  %16 = load ptr, ptr @eth_withoutfcs_handle, align 8
  tail call void @dissector_add_uint(ptr noundef nonnull @.str.123, i32 noundef 25944, ptr noundef %16)
  %17 = load ptr, ptr @eth_withoutfcs_handle, align 8
  tail call void @dissector_add_uint(ptr noundef nonnull @.str.123, i32 noundef 25600, ptr noundef %17)
  %18 = load ptr, ptr @eth_withoutfcs_handle, align 8
  tail call void @dissector_add_uint(ptr noundef nonnull @.str.124, i32 noundef 204, ptr noundef %18)
  %19 = load ptr, ptr @eth_withoutfcs_handle, align 8
  tail call void @dissector_add_uint(ptr noundef nonnull @.str.125, i32 noundef 1, ptr noundef %19)
  %20 = load ptr, ptr @eth_withoutfcs_handle, align 8
  tail call void @dissector_add_uint(ptr noundef nonnull @.str.126, i32 noundef 5, ptr noundef %20)
  %21 = load ptr, ptr @eth_withoutfcs_handle, align 8
  tail call void @dissector_add_uint(ptr noundef nonnull @.str.127, i32 noundef 3, ptr noundef %21)
  %22 = load ptr, ptr @eth_withoutfcs_handle, align 8
  tail call void @dissector_add_uint(ptr noundef nonnull @.str.128, i32 noundef 3, ptr noundef %22)
  %23 = load ptr, ptr @eth_withoutfcs_handle, align 8
  tail call void @dissector_add_uint(ptr noundef nonnull @.str.129, i32 noundef 3, ptr noundef %23)
  %24 = load ptr, ptr @eth_withoutfcs_handle, align 8
  tail call void @dissector_add_uint(ptr noundef nonnull @.str.130, i32 noundef 14, ptr noundef %24)
  %25 = load ptr, ptr @eth_withoutfcs_handle, align 8
  tail call void @dissector_add_uint(ptr noundef nonnull @.str.130, i32 noundef 50, ptr noundef %25)
  %26 = load ptr, ptr @eth_withoutfcs_handle, align 8
  tail call void @dissector_add_uint(ptr noundef nonnull @.str.131, i32 noundef 3, ptr noundef %26)
  %27 = load ptr, ptr @eth_withoutfcs_handle, align 8
  tail call void @dissector_add_for_decode_as_with_preference(ptr noundef nonnull @.str.132, ptr noundef %27)
  %28 = load ptr, ptr @eth_withoutfcs_handle, align 8
  tail call void @dissector_add_for_decode_as(ptr noundef nonnull @.str.133, ptr noundef %28)
  %29 = tail call ptr @find_capture_dissector(ptr noundef nonnull @.str.78)
  tail call void @capture_dissector_add_uint(ptr noundef nonnull @.str.118, i32 noundef 1, ptr noundef %29)
  tail call void @capture_dissector_add_uint(ptr noundef nonnull @.str.134, i32 noundef 2, ptr noundef %29)
  tail call void @capture_dissector_add_uint(ptr noundef nonnull @.str.134, i32 noundef 4, ptr noundef %29)
  tail call void @capture_dissector_add_uint(ptr noundef nonnull @.str.135, i32 noundef 1, ptr noundef %29)
  tail call void @capture_dissector_add_uint(ptr noundef nonnull @.str.128, i32 noundef 3, ptr noundef %29)
  %30 = tail call ptr @find_capture_dissector(ptr noundef nonnull @.str.136)
  store ptr %30, ptr @isl_cap_handle, align 8
  %31 = tail call ptr @find_capture_dissector(ptr noundef nonnull @.str.137)
  store ptr %31, ptr @ipx_cap_handle, align 8
  %32 = tail call ptr @find_capture_dissector(ptr noundef nonnull @.str.138)
  store ptr %32, ptr @llc_cap_handle, align 8
  ret void
}